target datalayout = "e-m:e-p270:32:32-p271:32:32-p272:64:64-i64:64-i128:128-f80:128-n8:16:32:64-S128"
target triple = "x86_64-pc-linux-gnu"

%struct.InputFile = type { ptr, ptr, i32 }
%struct.AVFormatContext = type { ptr, ptr, ptr, ptr, ptr, i32, i32, ptr, i32, ptr, i32, ptr, ptr, i64, i64, i64, i32, i32, i32, i64, i64, ptr, i32, i32, ptr, i32, i32, i32, i32, ptr, i64, i32, i32, %struct.AVIOInterruptCB, i32, i32, i32, i32, i64, i32, i32, i32, i32, i32, i32, i32, i32, i32, i32, i32, i32, i64, i32, i32, i32, i32, i32, ptr, ptr, ptr, ptr, i32, ptr, ptr, ptr, ptr, i32, ptr, ptr, i64, ptr, ptr, ptr, i64 }
%struct.AVIOInterruptCB = type { ptr, ptr }
%struct.AVRational = type { i32, i32 }
%struct.AVDictionaryEntry = type { ptr, ptr }
%struct.AVChapter = type { i64, %struct.AVRational, i64, i64, ptr }

@do_show_chapter_tags = internal global i32 0, align 4
@.str.397 = private unnamed_addr constant [3 x i8] c"id\00", align 1
@.str.633 = private unnamed_addr constant [10 x i8] c"time_base\00", align 1
@.str.635 = private unnamed_addr constant [11 x i8] c"start_time\00", align 1
@.str.701 = private unnamed_addr constant [6 x i8] c"start\00", align 1
@.str.702 = private unnamed_addr constant [4 x i8] c"end\00", align 1
@.str.703 = private unnamed_addr constant [9 x i8] c"end_time\00", align 1

; Function Attrs: inlinehint nounwind uwtable
define internal i32 @show_tags(ptr noundef %0, ptr noundef %1, i32 noundef %2) #5 {
  %4 = alloca i32, align 4
  %5 = alloca ptr, align 8
  %6 = alloca ptr, align 8
  %7 = alloca i32, align 4
  %8 = alloca ptr, align 8
  %9 = alloca i32, align 4
  %10 = alloca i32, align 4
  store ptr %0, ptr %5, align 8, !tbaa !28
  store ptr %1, ptr %6, align 8, !tbaa !116
  store i32 %2, ptr %7, align 4, !tbaa !11
  call void @llvm.lifetime.start.p0(i64 8, ptr %8) #14
  store ptr null, ptr %8, align 8, !tbaa !161
  call void @llvm.lifetime.start.p0(i64 4, ptr %9) #14
  store i32 0, ptr %9, align 4, !tbaa !11
  %11 = load ptr, ptr %6, align 8, !tbaa !116
  %12 = icmp ne ptr %11, null
  br i1 %12, label %14, label %13

13:                                               ; preds = %3
  store i32 0, ptr %4, align 4
  store i32 1, ptr %10, align 4
  br label %37

14:                                               ; preds = %3
  %15 = load ptr, ptr %5, align 8, !tbaa !28
  %16 = load i32, ptr %7, align 4, !tbaa !11
  call void @avtext_print_section_header(ptr noundef %15, ptr noundef null, i32 noundef %16)
  br label %17

17:                                               ; preds = %33, %14
  %18 = load ptr, ptr %6, align 8, !tbaa !116
  %19 = load ptr, ptr %8, align 8, !tbaa !161
  %20 = call ptr @av_dict_iterate(ptr noundef %18, ptr noundef %19)
  store ptr %20, ptr %8, align 8, !tbaa !161
  %21 = icmp ne ptr %20, null
  br i1 %21, label %22, label %34

22:                                               ; preds = %17
  %23 = load ptr, ptr %5, align 8, !tbaa !28
  %24 = load ptr, ptr %8, align 8, !tbaa !161
  %25 = getelementptr inbounds nuw %struct.AVDictionaryEntry, ptr %24, i32 0, i32 0
  %26 = load ptr, ptr %25, align 8, !tbaa !164
  %27 = load ptr, ptr %8, align 8, !tbaa !161
  %28 = getelementptr inbounds nuw %struct.AVDictionaryEntry, ptr %27, i32 0, i32 1
  %29 = load ptr, ptr %28, align 8, !tbaa !254
  %30 = call i32 @avtext_print_string(ptr noundef %23, ptr noundef %26, ptr noundef %29, i32 noundef 2)
  store i32 %30, ptr %9, align 4, !tbaa !11
  %31 = icmp slt i32 %30, 0
  br i1 %31, label %32, label %33

32:                                               ; preds = %22
  br label %34

33:                                               ; preds = %22
  br label %17, !llvm.loop !255

34:                                               ; preds = %32, %17
  %35 = load ptr, ptr %5, align 8, !tbaa !28
  call void @avtext_print_section_footer(ptr noundef %35)
  %36 = load i32, ptr %9, align 4, !tbaa !11
  store i32 %36, ptr %4, align 4
  store i32 1, ptr %10, align 4
  br label %37

37:                                               ; preds = %34, %13
  call void @llvm.lifetime.end.p0(i64 4, ptr %9) #14
  call void @llvm.lifetime.end.p0(i64 8, ptr %8) #14
  %38 = load i32, ptr %4, align 4
  ret i32 %38
}

; Function Attrs: nounwind uwtable
define internal i32 @show_chapters(ptr noundef %0, ptr noundef %1) #0 {
  %3 = alloca ptr, align 8
  %4 = alloca ptr, align 8
  %5 = alloca ptr, align 8
  %6 = alloca i32, align 4
  %7 = alloca i32, align 4
  %8 = alloca ptr, align 8
  store ptr %0, ptr %3, align 8, !tbaa !28
  store ptr %1, ptr %4, align 8, !tbaa !158
  call void @llvm.lifetime.start.p0(i64 8, ptr %5) #14
  %9 = load ptr, ptr %4, align 8, !tbaa !158
  %10 = getelementptr inbounds nuw %struct.InputFile, ptr %9, i32 0, i32 0
  %11 = load ptr, ptr %10, align 8, !tbaa !83
  store ptr %11, ptr %5, align 8, !tbaa !160
  call void @llvm.lifetime.start.p0(i64 4, ptr %6) #14
  call void @llvm.lifetime.start.p0(i64 4, ptr %7) #14
  store i32 0, ptr %7, align 4, !tbaa !11
  %12 = load ptr, ptr %3, align 8, !tbaa !28
  call void @avtext_print_section_header(ptr noundef %12, ptr noundef null, i32 noundef 2)
  store i32 0, ptr %6, align 4, !tbaa !11
  br label %13

13:                                               ; preds = %66, %2
  %14 = load i32, ptr %6, align 4, !tbaa !11
  %15 = load ptr, ptr %5, align 8, !tbaa !160
  %16 = getelementptr inbounds nuw %struct.AVFormatContext, ptr %15, i32 0, i32 10
  %17 = load i32, ptr %16, align 8, !tbaa !196
  %18 = icmp ult i32 %14, %17
  br i1 %18, label %19, label %69

19:                                               ; preds = %13
  call void @llvm.lifetime.start.p0(i64 8, ptr %8) #14
  %20 = load ptr, ptr %5, align 8, !tbaa !160
  %21 = getelementptr inbounds nuw %struct.AVFormatContext, ptr %20, i32 0, i32 11
  %22 = load ptr, ptr %21, align 8, !tbaa !197
  %23 = load i32, ptr %6, align 4, !tbaa !11
  %24 = sext i32 %23 to i64
  %25 = getelementptr inbounds ptr, ptr %22, i64 %24
  %26 = load ptr, ptr %25, align 8, !tbaa !198
  store ptr %26, ptr %8, align 8, !tbaa !198
  %27 = load ptr, ptr %3, align 8, !tbaa !28
  call void @avtext_print_section_header(ptr noundef %27, ptr noundef null, i32 noundef 0)
  %28 = load ptr, ptr %3, align 8, !tbaa !28
  %29 = load ptr, ptr %8, align 8, !tbaa !198
  %30 = getelementptr inbounds nuw %struct.AVChapter, ptr %29, i32 0, i32 0
  %31 = load i64, ptr %30, align 8, !tbaa !200
  call void @avtext_print_integer(ptr noundef %28, ptr noundef @.str.397, i64 noundef %31, i32 noundef 0)
  %32 = load ptr, ptr %3, align 8, !tbaa !28
  %33 = load ptr, ptr %8, align 8, !tbaa !198
  %34 = getelementptr inbounds nuw %struct.AVChapter, ptr %33, i32 0, i32 1
  %35 = load i64, ptr %34, align 8
  call void @avtext_print_rational(ptr noundef %32, ptr noundef @.str.633, i64 %35, i8 noundef signext 47)
  %36 = load ptr, ptr %3, align 8, !tbaa !28
  %37 = load ptr, ptr %8, align 8, !tbaa !198
  %38 = getelementptr inbounds nuw %struct.AVChapter, ptr %37, i32 0, i32 2
  %39 = load i64, ptr %38, align 8, !tbaa !202
  call void @avtext_print_integer(ptr noundef %36, ptr noundef @.str.701, i64 noundef %39, i32 noundef 0)
  %40 = load ptr, ptr %3, align 8, !tbaa !28
  %41 = load ptr, ptr %8, align 8, !tbaa !198
  %42 = getelementptr inbounds nuw %struct.AVChapter, ptr %41, i32 0, i32 2
  %43 = load i64, ptr %42, align 8, !tbaa !202
  %44 = load ptr, ptr %8, align 8, !tbaa !198
  %45 = getelementptr inbounds nuw %struct.AVChapter, ptr %44, i32 0, i32 1
  call void @avtext_print_time(ptr noundef %40, ptr noundef @.str.635, i64 noundef %43, ptr noundef %45, i32 noundef 0)
  %46 = load ptr, ptr %3, align 8, !tbaa !28
  %47 = load ptr, ptr %8, align 8, !tbaa !198
  %48 = getelementptr inbounds nuw %struct.AVChapter, ptr %47, i32 0, i32 3
  %49 = load i64, ptr %48, align 8, !tbaa !203
  call void @avtext_print_integer(ptr noundef %46, ptr noundef @.str.702, i64 noundef %49, i32 noundef 0)
  %50 = load ptr, ptr %3, align 8, !tbaa !28
  %51 = load ptr, ptr %8, align 8, !tbaa !198
  %52 = getelementptr inbounds nuw %struct.AVChapter, ptr %51, i32 0, i32 3
  %53 = load i64, ptr %52, align 8, !tbaa !203
  %54 = load ptr, ptr %8, align 8, !tbaa !198
  %55 = getelementptr inbounds nuw %struct.AVChapter, ptr %54, i32 0, i32 1
  call void @avtext_print_time(ptr noundef %50, ptr noundef @.str.703, i64 noundef %53, ptr noundef %55, i32 noundef 0)
  %56 = load i32, ptr @do_show_chapter_tags, align 4, !tbaa !11
  %57 = icmp ne i32 %56, 0
  br i1 %57, label %58, label %64

58:                                               ; preds = %19
  %59 = load ptr, ptr %3, align 8, !tbaa !28
  %60 = load ptr, ptr %8, align 8, !tbaa !198
  %61 = getelementptr inbounds nuw %struct.AVChapter, ptr %60, i32 0, i32 4
  %62 = load ptr, ptr %61, align 8, !tbaa !204
  %63 = call i32 @show_tags(ptr noundef %59, ptr noundef %62, i32 noundef 1)
  store i32 %63, ptr %7, align 4, !tbaa !11
  br label %64

64:                                               ; preds = %58, %19
  %65 = load ptr, ptr %3, align 8, !tbaa !28
  call void @avtext_print_section_footer(ptr noundef %65)
  call void @llvm.lifetime.end.p0(i64 8, ptr %8) #14
  br label %66

66:                                               ; preds = %64
  %67 = load i32, ptr %6, align 4, !tbaa !11
  %68 = add nsw i32 %67, 1
  store i32 %68, ptr %6, align 4, !tbaa !11
  br label %13, !llvm.loop !205

69:                                               ; preds = %13
  %70 = load ptr, ptr %3, align 8, !tbaa !28
  call void @avtext_print_section_footer(ptr noundef %70)
  %71 = load i32, ptr %7, align 4, !tbaa !11
  call void @llvm.lifetime.end.p0(i64 4, ptr %7) #14
  call void @llvm.lifetime.end.p0(i64 4, ptr %6) #14
  call void @llvm.lifetime.end.p0(i64 8, ptr %5) #14
  ret i32 %71
}