; Function Attrs: nounwind uwtable
define internal fastcc i32 @show_chapters(ptr noundef %0, ptr readonly captures(none) %.0.val) unnamed_addr #0 {
  tail call void @avtext_print_section_header(ptr noundef %0, ptr noundef null, i32 noundef 2) #20
  %2 = getelementptr inbounds nuw i8, ptr %.0.val, i64 72
  %3 = load i32, ptr %2, align 8, !tbaa !254
  %.not = icmp eq i32 %3, 0
  br i1 %.not, label %._crit_edge, label %.lr.ph

.lr.ph:                                           ; preds = %1
  %4 = getelementptr inbounds nuw i8, ptr %.0.val, i64 80
  br label %5

5:                                                ; preds = %.lr.ph, %show_tags.exit
  %indvars.iv = phi i64 [ 0, %.lr.ph ], [ %indvars.iv.next, %show_tags.exit ]
  %.0262 = phi i32 [ 0, %.lr.ph ], [ %.1, %show_tags.exit ]
  %6 = load ptr, ptr %4, align 8, !tbaa !255
  %7 = getelementptr inbounds nuw ptr, ptr %6, i64 %indvars.iv
  %8 = load ptr, ptr %7, align 8, !tbaa !256
  tail call void @avtext_print_section_header(ptr noundef %0, ptr noundef null, i32 noundef 0) #20
  %9 = load i64, ptr %8, align 8, !tbaa !258
  tail call void @avtext_print_integer(ptr noundef %0, ptr noundef nonnull @.str.397, i64 noundef %9, i32 noundef 0) #20
  %10 = getelementptr inbounds nuw i8, ptr %8, i64 8
  %11 = load i64, ptr %10, align 8
  tail call void @avtext_print_rational(ptr noundef %0, ptr noundef nonnull @.str.633, i64 %11, i8 noundef signext 47) #20
  %12 = getelementptr inbounds nuw i8, ptr %8, i64 16
  %13 = load i64, ptr %12, align 8, !tbaa !260
  tail call void @avtext_print_integer(ptr noundef %0, ptr noundef nonnull @.str.701, i64 noundef %13, i32 noundef 0) #20
  %14 = load i64, ptr %12, align 8, !tbaa !260
  tail call void @avtext_print_time(ptr noundef %0, ptr noundef nonnull @.str.635, i64 noundef %14, ptr noundef nonnull %10, i32 noundef 0) #20
  %15 = getelementptr inbounds nuw i8, ptr %8, i64 24
  %16 = load i64, ptr %15, align 8, !tbaa !261
  tail call void @avtext_print_integer(ptr noundef %0, ptr noundef nonnull @.str.702, i64 noundef %16, i32 noundef 0) #20
  %17 = load i64, ptr %15, align 8, !tbaa !261
  tail call void @avtext_print_time(ptr noundef %0, ptr noundef nonnull @.str.703, i64 noundef %17, ptr noundef nonnull %10, i32 noundef 0) #20
  %.b = load i1, ptr @do_show_chapter_tags, align 4
  br i1 %.b, label %18, label %show_tags.exit

18:                                               ; preds = %5
  %19 = getelementptr inbounds nuw i8, ptr %8, i64 32
  %20 = load ptr, ptr %19, align 8, !tbaa !262
  %.not.i = icmp eq ptr %20, null
  br i1 %.not.i, label %show_tags.exit, label %21

21:                                               ; preds = %18
  tail call void @avtext_print_section_header(ptr noundef %0, ptr noundef null, i32 noundef 1) #20
  %22 = tail call ptr @av_dict_iterate(ptr noundef nonnull %20, ptr noundef null) #20
  %.not1617.i = icmp eq ptr %22, null
  br i1 %.not1617.i, label %._crit_edge18.i, label %.lr.ph.i

23:                                               ; preds = %.lr.ph.i
  %24 = tail call ptr @av_dict_iterate(ptr noundef nonnull %20, ptr noundef nonnull %25) #20
  %.not16.i = icmp eq ptr %24, null
  br i1 %.not16.i, label %._crit_edge18.i, label %.lr.ph.i, !llvm.loop !172

.lr.ph.i:                                         ; preds = %21, %23
  %25 = phi ptr [ %24, %23 ], [ %22, %21 ]
  %26 = load ptr, ptr %25, align 8, !tbaa !90
  %27 = getelementptr inbounds nuw i8, ptr %25, i64 8
  %28 = load ptr, ptr %27, align 8, !tbaa !173
  %29 = tail call i32 @avtext_print_string(ptr noundef %0, ptr noundef %26, ptr noundef %28, i32 noundef 2) #20
  %30 = icmp slt i32 %29, 0
  br i1 %30, label %._crit_edge.i, label %23, !llvm.loop !172

._crit_edge.i:                                    ; preds = %.lr.ph.i
  br label %._crit_edge18.i, !llvm.loop !172

._crit_edge18.i:                                  ; preds = %23, %._crit_edge.i, %21
  %.1.i = phi i32 [ %29, %._crit_edge.i ], [ 0, %21 ], [ %29, %23 ]
  tail call void @avtext_print_section_footer(ptr noundef %0) #20
  br label %show_tags.exit

show_tags.exit:                                   ; preds = %._crit_edge18.i, %18, %5
  %.1 = phi i32 [ %.0262, %5 ], [ %.1.i, %._crit_edge18.i ], [ 0, %18 ]
  tail call void @avtext_print_section_footer(ptr noundef %0) #20
  %indvars.iv.next = add nuw nsw i64 %indvars.iv, 1
  %31 = load i32, ptr %2, align 8, !tbaa !254
  %32 = zext i32 %31 to i64
  %33 = icmp samesign ult i64 %indvars.iv.next, %32
  br i1 %33, label %5, label %._crit_edge, !llvm.loop !263

._crit_edge:                                      ; preds = %show_tags.exit, %1
  %.026.lcssa = phi i32 [ 0, %1 ], [ %.1, %show_tags.exit ]
  tail call void @avtext_print_section_footer(ptr noundef %0) #20
  ret i32 %.026.lcssa
}